(dp0
S'fever'
p1
S'disease'
p2
sS'commoncold'
p3
S'disease'
p4
sS'common cold'
p5
S'disease'
p6
sS'alergy'
p7
S'symptom'
p8
sS'paracetamol'
p9
S'medicine'
p10
sS'backpain'
p11
S'symptom'
p12
sS'headache'
p13
S'symptom'
p14
s.